target datalayout = "e-m:e-p270:32:32-p271:32:32-p272:64:64-i64:64-i128:128-f80:128-n8:16:32:64-S128"
target triple = "x86_64-pc-linux-gnu"

%struct.FxuCube = type { i32, ptr, ptr, %struct.FxuListLit, ptr, ptr, ptr }
%struct.FxuListLit = type { ptr, ptr, i32 }
%struct.FxuLit = type { i32, i32, ptr, ptr, ptr, ptr, ptr, ptr }

; Function Attrs: nounwind uwtable
define i32 @Fxu_PairHashKey(ptr noundef %0, ptr noundef %1, ptr noundef %2, ptr noundef %3, ptr noundef %4, ptr noundef %5) #0 {
  %7 = alloca ptr, align 8
  %8 = alloca ptr, align 8
  %9 = alloca ptr, align 8
  %10 = alloca ptr, align 8
  %11 = alloca ptr, align 8
  %12 = alloca ptr, align 8
  %13 = alloca i32, align 4
  %14 = alloca i32, align 4
  %15 = alloca i32, align 4
  %16 = alloca i32, align 4
  %17 = alloca i32, align 4
  %18 = alloca ptr, align 8
  %19 = alloca ptr, align 8
  %20 = alloca i32, align 4
  store ptr %0, ptr %7, align 8, !tbaa !21
  store ptr %1, ptr %8, align 8, !tbaa !8
  store ptr %2, ptr %9, align 8, !tbaa !8
  store ptr %3, ptr %10, align 8, !tbaa !23
  store ptr %4, ptr %11, align 8, !tbaa !23
  store ptr %5, ptr %12, align 8, !tbaa !23
  call void @llvm.lifetime.start.p0(i64 4, ptr %13) #6
  store i32 100, ptr %13, align 4, !tbaa !25
  call void @llvm.lifetime.start.p0(i64 4, ptr %14) #6
  store i32 200, ptr %14, align 4, !tbaa !25
  call void @llvm.lifetime.start.p0(i64 4, ptr %15) #6
  call void @llvm.lifetime.start.p0(i64 4, ptr %16) #6
  call void @llvm.lifetime.start.p0(i64 4, ptr %17) #6
  call void @llvm.lifetime.start.p0(i64 8, ptr %18) #6
  call void @llvm.lifetime.start.p0(i64 8, ptr %19) #6
  call void @llvm.lifetime.start.p0(i64 4, ptr %20) #6
  store i32 0, ptr %20, align 4, !tbaa !25
  store i32 0, ptr %16, align 4, !tbaa !25
  store i32 0, ptr %17, align 4, !tbaa !25
  store i32 0, ptr %15, align 4, !tbaa !25
  %21 = load ptr, ptr %8, align 8, !tbaa !8
  %22 = getelementptr inbounds nuw %struct.FxuCube, ptr %21, i32 0, i32 3
  %23 = getelementptr inbounds nuw %struct.FxuListLit, ptr %22, i32 0, i32 0
  %24 = load ptr, ptr %23, align 8, !tbaa !10
  store ptr %24, ptr %18, align 8, !tbaa !16
  %25 = load ptr, ptr %9, align 8, !tbaa !8
  %26 = getelementptr inbounds nuw %struct.FxuCube, ptr %25, i32 0, i32 3
  %27 = getelementptr inbounds nuw %struct.FxuListLit, ptr %26, i32 0, i32 0
  %28 = load ptr, ptr %27, align 8, !tbaa !10
  store ptr %28, ptr %19, align 8, !tbaa !16
  br label %29

29:                                               ; preds = %150, %6
  br label %30

30:                                               ; preds = %29
  %31 = load ptr, ptr %18, align 8, !tbaa !16
  %32 = icmp ne ptr %31, null
  br i1 %32, label %33, label %99

33:                                               ; preds = %30
  %34 = load ptr, ptr %19, align 8, !tbaa !16
  %35 = icmp ne ptr %34, null
  br i1 %35, label %36, label %99

36:                                               ; preds = %33
  %37 = load ptr, ptr %18, align 8, !tbaa !16
  %38 = getelementptr inbounds nuw %struct.FxuLit, ptr %37, i32 0, i32 0
  %39 = load i32, ptr %38, align 8, !tbaa !17
  %40 = load ptr, ptr %19, align 8, !tbaa !16
  %41 = getelementptr inbounds nuw %struct.FxuLit, ptr %40, i32 0, i32 0
  %42 = load i32, ptr %41, align 8, !tbaa !17
  %43 = icmp eq i32 %39, %42
  br i1 %43, label %44, label %53

44:                                               ; preds = %36
  %45 = load ptr, ptr %18, align 8, !tbaa !16
  %46 = getelementptr inbounds nuw %struct.FxuLit, ptr %45, i32 0, i32 5
  %47 = load ptr, ptr %46, align 8, !tbaa !19
  store ptr %47, ptr %18, align 8, !tbaa !16
  %48 = load ptr, ptr %19, align 8, !tbaa !16
  %49 = getelementptr inbounds nuw %struct.FxuLit, ptr %48, i32 0, i32 5
  %50 = load ptr, ptr %49, align 8, !tbaa !19
  store ptr %50, ptr %19, align 8, !tbaa !16
  %51 = load i32, ptr %15, align 4, !tbaa !25
  %52 = add nsw i32 %51, 1
  store i32 %52, ptr %15, align 4, !tbaa !25
  br label %98

53:                                               ; preds = %36
  %54 = load ptr, ptr %18, align 8, !tbaa !16
  %55 = getelementptr inbounds nuw %struct.FxuLit, ptr %54, i32 0, i32 0
  %56 = load i32, ptr %55, align 8, !tbaa !17
  %57 = load ptr, ptr %19, align 8, !tbaa !16
  %58 = getelementptr inbounds nuw %struct.FxuLit, ptr %57, i32 0, i32 0
  %59 = load i32, ptr %58, align 8, !tbaa !17
  %60 = icmp slt i32 %56, %59
  br i1 %60, label %61, label %79

61:                                               ; preds = %53
  %62 = load i32, ptr %13, align 4, !tbaa !25
  %63 = load i32, ptr %16, align 4, !tbaa !25
  %64 = add nsw i32 %62, %63
  %65 = sext i32 %64 to i64
  %66 = getelementptr inbounds [304 x i32], ptr @s_Primes, i64 0, i64 %65
  %67 = load i32, ptr %66, align 4, !tbaa !25
  %68 = load ptr, ptr %18, align 8, !tbaa !16
  %69 = getelementptr inbounds nuw %struct.FxuLit, ptr %68, i32 0, i32 0
  %70 = load i32, ptr %69, align 8, !tbaa !17
  %71 = mul nsw i32 %67, %70
  %72 = load i32, ptr %20, align 4, !tbaa !25
  %73 = xor i32 %72, %71
  store i32 %73, ptr %20, align 4, !tbaa !25
  %74 = load ptr, ptr %18, align 8, !tbaa !16
  %75 = getelementptr inbounds nuw %struct.FxuLit, ptr %74, i32 0, i32 5
  %76 = load ptr, ptr %75, align 8, !tbaa !19
  store ptr %76, ptr %18, align 8, !tbaa !16
  %77 = load i32, ptr %16, align 4, !tbaa !25
  %78 = add nsw i32 %77, 1
  store i32 %78, ptr %16, align 4, !tbaa !25
  br label %97

79:                                               ; preds = %53
  %80 = load i32, ptr %14, align 4, !tbaa !25
  %81 = load i32, ptr %17, align 4, !tbaa !25
  %82 = add nsw i32 %80, %81
  %83 = sext i32 %82 to i64
  %84 = getelementptr inbounds [304 x i32], ptr @s_Primes, i64 0, i64 %83
  %85 = load i32, ptr %84, align 4, !tbaa !25
  %86 = load ptr, ptr %19, align 8, !tbaa !16
  %87 = getelementptr inbounds nuw %struct.FxuLit, ptr %86, i32 0, i32 0
  %88 = load i32, ptr %87, align 8, !tbaa !17
  %89 = mul nsw i32 %85, %88
  %90 = load i32, ptr %20, align 4, !tbaa !25
  %91 = xor i32 %90, %89
  store i32 %91, ptr %20, align 4, !tbaa !25
  %92 = load ptr, ptr %19, align 8, !tbaa !16
  %93 = getelementptr inbounds nuw %struct.FxuLit, ptr %92, i32 0, i32 5
  %94 = load ptr, ptr %93, align 8, !tbaa !19
  store ptr %94, ptr %19, align 8, !tbaa !16
  %95 = load i32, ptr %17, align 4, !tbaa !25
  %96 = add nsw i32 %95, 1
  store i32 %96, ptr %17, align 4, !tbaa !25
  br label %97

97:                                               ; preds = %79, %61
  br label %98

98:                                               ; preds = %97, %44
  br label %150

99:                                               ; preds = %33, %30
  %100 = load ptr, ptr %18, align 8, !tbaa !16
  %101 = icmp ne ptr %100, null
  br i1 %101, label %102, label %123

102:                                              ; preds = %99
  %103 = load ptr, ptr %19, align 8, !tbaa !16
  %104 = icmp ne ptr %103, null
  br i1 %104, label %123, label %105

105:                                              ; preds = %102
  %106 = load i32, ptr %13, align 4, !tbaa !25
  %107 = load i32, ptr %16, align 4, !tbaa !25
  %108 = add nsw i32 %106, %107
  %109 = sext i32 %108 to i64
  %110 = getelementptr inbounds [304 x i32], ptr @s_Primes, i64 0, i64 %109
  %111 = load i32, ptr %110, align 4, !tbaa !25
  %112 = load ptr, ptr %18, align 8, !tbaa !16
  %113 = getelementptr inbounds nuw %struct.FxuLit, ptr %112, i32 0, i32 0
  %114 = load i32, ptr %113, align 8, !tbaa !17
  %115 = mul nsw i32 %111, %114
  %116 = load i32, ptr %20, align 4, !tbaa !25
  %117 = xor i32 %116, %115
  store i32 %117, ptr %20, align 4, !tbaa !25
  %118 = load ptr, ptr %18, align 8, !tbaa !16
  %119 = getelementptr inbounds nuw %struct.FxuLit, ptr %118, i32 0, i32 5
  %120 = load ptr, ptr %119, align 8, !tbaa !19
  store ptr %120, ptr %18, align 8, !tbaa !16
  %121 = load i32, ptr %16, align 4, !tbaa !25
  %122 = add nsw i32 %121, 1
  store i32 %122, ptr %16, align 4, !tbaa !25
  br label %149

123:                                              ; preds = %102, %99
  %124 = load ptr, ptr %18, align 8, !tbaa !16
  %125 = icmp ne ptr %124, null
  br i1 %125, label %147, label %126

126:                                              ; preds = %123
  %127 = load ptr, ptr %19, align 8, !tbaa !16
  %128 = icmp ne ptr %127, null
  br i1 %128, label %129, label %147

129:                                              ; preds = %126
  %130 = load i32, ptr %14, align 4, !tbaa !25
  %131 = load i32, ptr %17, align 4, !tbaa !25
  %132 = add nsw i32 %130, %131
  %133 = sext i32 %132 to i64
  %134 = getelementptr inbounds [304 x i32], ptr @s_Primes, i64 0, i64 %133
  %135 = load i32, ptr %134, align 4, !tbaa !25
  %136 = load ptr, ptr %19, align 8, !tbaa !16
  %137 = getelementptr inbounds nuw %struct.FxuLit, ptr %136, i32 0, i32 0
  %138 = load i32, ptr %137, align 8, !tbaa !17
  %139 = mul nsw i32 %135, %138
  %140 = load i32, ptr %20, align 4, !tbaa !25
  %141 = xor i32 %140, %139
  store i32 %141, ptr %20, align 4, !tbaa !25
  %142 = load ptr, ptr %19, align 8, !tbaa !16
  %143 = getelementptr inbounds nuw %struct.FxuLit, ptr %142, i32 0, i32 5
  %144 = load ptr, ptr %143, align 8, !tbaa !19
  store ptr %144, ptr %19, align 8, !tbaa !16
  %145 = load i32, ptr %17, align 4, !tbaa !25
  %146 = add nsw i32 %145, 1
  store i32 %146, ptr %17, align 4, !tbaa !25
  br label %148

147:                                              ; preds = %126, %123
  br label %151

148:                                              ; preds = %129
  br label %149

149:                                              ; preds = %148, %105
  br label %150

150:                                              ; preds = %149, %98
  br label %29

151:                                              ; preds = %147
  %152 = load i32, ptr %15, align 4, !tbaa !25
  %153 = load ptr, ptr %10, align 8, !tbaa !23
  store i32 %152, ptr %153, align 4, !tbaa !25
  %154 = load i32, ptr %16, align 4, !tbaa !25
  %155 = load ptr, ptr %11, align 8, !tbaa !23
  store i32 %154, ptr %155, align 4, !tbaa !25
  %156 = load i32, ptr %17, align 4, !tbaa !25
  %157 = load ptr, ptr %12, align 8, !tbaa !23
  store i32 %156, ptr %157, align 4, !tbaa !25
  %158 = load i32, ptr %20, align 4, !tbaa !25
  call void @llvm.lifetime.end.p0(i64 4, ptr %20) #6
  call void @llvm.lifetime.end.p0(i64 8, ptr %19) #6
  call void @llvm.lifetime.end.p0(i64 8, ptr %18) #6
  call void @llvm.lifetime.end.p0(i64 4, ptr %17) #6
  call void @llvm.lifetime.end.p0(i64 4, ptr %16) #6
  call void @llvm.lifetime.end.p0(i64 4, ptr %15) #6
  call void @llvm.lifetime.end.p0(i64 4, ptr %14) #6
  call void @llvm.lifetime.end.p0(i64 4, ptr %13) #6
  ret i32 %158
}